; Function Attrs: mustprogress uwtable
define noundef ptr @_ZN5arrow2io8internal15GetIOThreadPoolEv() local_unnamed_addr #0 personality ptr @__gxx_personality_v0 {
entry:
  %0 = load atomic i8, ptr @_ZGVZN5arrow2io8internal15GetIOThreadPoolEvE4pool acquire, align 8
  %guard.uninitialized = icmp eq i8 %0, 0
  br i1 %guard.uninitialized, label %init.check, label %init.end, !prof !4

init.check:                                       ; preds = %entry
  %1 = tail call i32 @__cxa_guard_acquire(ptr nonnull @_ZGVZN5arrow2io8internal15GetIOThreadPoolEvE4pool) #28
  %tobool.not = icmp eq i32 %1, 0
  br i1 %tobool.not, label %init.end, label %init

init:                                             ; preds = %init.check
  invoke fastcc void @_ZN5arrow2io8internal12_GLOBAL__N_116MakeIOThreadPoolEv()
          to label %invoke.cont unwind label %lpad

invoke.cont:                                      ; preds = %init
  %2 = tail call i32 @__cxa_atexit(ptr nonnull @_ZNSt10shared_ptrIN5arrow8internal10ThreadPoolEED2Ev, ptr nonnull @_ZZN5arrow2io8internal15GetIOThreadPoolEvE4pool, ptr nonnull @__dso_handle) #28
  tail call void @__cxa_guard_release(ptr nonnull @_ZGVZN5arrow2io8internal15GetIOThreadPoolEvE4pool) #28
  br label %init.end

init.end:                                         ; preds = %invoke.cont, %init.check, %entry
  %3 = load ptr, ptr @_ZZN5arrow2io8internal15GetIOThreadPoolEvE4pool, align 8
  ret ptr %3

lpad:                                             ; preds = %init
  %4 = landingpad { ptr, i32 }
          cleanup
  tail call void @__cxa_guard_abort(ptr nonnull @_ZGVZN5arrow2io8internal15GetIOThreadPoolEvE4pool) #28
  resume { ptr, i32 } %4
}